; Function Attrs: mustprogress uwtable
define internal fastcc void @_ZL20EditTableSizingFlagsPi(ptr noundef captures(none) %0) unnamed_addr #2 {
  %2 = alloca %struct.ImVec2, align 4
  %3 = load i32, ptr %0, align 4, !tbaa !54
  %4 = and i32 %3, 57344
  br label %5

5:                                                ; preds = %1, %9
  %indvars.iv = phi i64 [ 0, %1 ], [ %indvars.iv.next, %9 ]
  %6 = getelementptr inbounds nuw [5 x %struct.EnumDesc], ptr @_ZZL20EditTableSizingFlagsPiE8policies, i64 0, i64 %indvars.iv
  %7 = load i32, ptr %6, align 8, !tbaa !484
  %8 = icmp eq i32 %7, %4
  br i1 %8, label %10, label %9

9:                                                ; preds = %5
  %indvars.iv.next = add nuw nsw i64 %indvars.iv, 1
  %exitcond.not = icmp eq i64 %indvars.iv.next, 5
  br i1 %exitcond.not, label %.critedge, label %5, !llvm.loop !486

10:                                               ; preds = %5
  %11 = getelementptr inbounds nuw [5 x %struct.EnumDesc], ptr @_ZZL20EditTableSizingFlagsPiE8policies, i64 0, i64 %indvars.iv, i32 1
  %12 = load ptr, ptr %11, align 8, !tbaa !487
  %.not = icmp eq i64 %indvars.iv, 0
  %13 = select i1 %.not, i64 0, i64 15
  %14 = getelementptr inbounds nuw i8, ptr %12, i64 %13
  %15 = and i64 %indvars.iv, 4294967295
  br label %.critedge

.critedge:                                        ; preds = %9, %10
  %.02022 = phi i64 [ %15, %10 ], [ 5, %9 ]
  %16 = phi ptr [ %14, %10 ], [ @.str.234, %9 ]
  %17 = tail call noundef zeroext i1 @_ZN5ImGui10BeginComboEPKcS1_i(ptr noundef nonnull @.str.1762, ptr noundef %16, i32 noundef 0)
  br i1 %17, label %.preheader, label %32

.preheader:                                       ; preds = %.critedge
  %18 = getelementptr inbounds nuw i8, ptr %2, i64 4
  br label %20

19:                                               ; preds = %31
  call void @_ZN5ImGui8EndComboEv()
  br label %32

20:                                               ; preds = %.preheader, %31
  %indvars.iv30 = phi i64 [ 0, %.preheader ], [ %indvars.iv.next31, %31 ]
  %21 = getelementptr inbounds nuw [5 x %struct.EnumDesc], ptr @_ZZL20EditTableSizingFlagsPiE8policies, i64 0, i64 %indvars.iv30
  %22 = getelementptr inbounds nuw i8, ptr %21, i64 8
  %23 = load ptr, ptr %22, align 8, !tbaa !487
  %24 = icmp eq i64 %.02022, %indvars.iv30
  call void @llvm.lifetime.start.p0(i64 8, ptr nonnull %2) #33
  store float 0.000000e+00, ptr %2, align 4, !tbaa !42
  store float 0.000000e+00, ptr %18, align 4, !tbaa !44
  %25 = call noundef zeroext i1 @_ZN5ImGui10SelectableEPKcbiRK6ImVec2(ptr noundef %23, i1 noundef zeroext %24, i32 noundef 0, ptr noundef nonnull align 4 dereferenceable(8) %2)
  call void @llvm.lifetime.end.p0(i64 8, ptr nonnull %2) #33
  br i1 %25, label %26, label %31

26:                                               ; preds = %20
  %27 = load i32, ptr %0, align 4, !tbaa !54
  %28 = and i32 %27, -57345
  %29 = load i32, ptr %21, align 8, !tbaa !484
  %30 = or i32 %28, %29
  store i32 %30, ptr %0, align 4, !tbaa !54
  br label %31

31:                                               ; preds = %20, %26
  %indvars.iv.next31 = add nuw nsw i64 %indvars.iv30, 1
  %exitcond33.not = icmp eq i64 %indvars.iv.next31, 5
  br i1 %exitcond33.not, label %19, label %20, !llvm.loop !488

32:                                               ; preds = %19, %.critedge
  call void @_ZN5ImGui8SameLineEff(float noundef 0.000000e+00, float noundef -1.000000e+00)
  call void (ptr, ...) @_ZN5ImGui12TextDisabledEPKcz(ptr noundef nonnull @.str.287)
  %33 = call noundef zeroext i1 @_ZN5ImGui16BeginItemTooltipEv()
  br i1 %33, label %34, label %50

34:                                               ; preds = %32
  %35 = call noundef float @_ZN5ImGui11GetFontSizeEv()
  %36 = fmul float %35, 5.000000e+01
  call void @_ZN5ImGui15PushTextWrapPosEf(float noundef %36)
  br label %38

37:                                               ; preds = %38
  call void @_ZN5ImGui14PopTextWrapPosEv()
  call void @_ZN5ImGui10EndTooltipEv()
  br label %50

38:                                               ; preds = %34, %38
  %indvars.iv34 = phi i64 [ 0, %34 ], [ %indvars.iv.next35, %38 ]
  call void @_ZN5ImGui9SeparatorEv()
  %39 = getelementptr inbounds nuw [5 x %struct.EnumDesc], ptr @_ZZL20EditTableSizingFlagsPiE8policies, i64 0, i64 %indvars.iv34
  %40 = getelementptr inbounds nuw i8, ptr %39, i64 8
  %41 = load ptr, ptr %40, align 8, !tbaa !487
  call void (ptr, ...) @_ZN5ImGui4TextEPKcz(ptr noundef nonnull @.str.1763, ptr noundef %41)
  call void @_ZN5ImGui9SeparatorEv()
  %42 = call noundef float @_ZN5ImGui13GetCursorPosXEv()
  %43 = call noundef nonnull align 4 dereferenceable(1156) ptr @_ZN5ImGui8GetStyleEv()
  %44 = getelementptr inbounds nuw i8, ptr %43, i64 108
  %45 = load float, ptr %44, align 4, !tbaa !489
  %46 = fmul float %45, 5.000000e-01
  %47 = fadd float %42, %46
  call void @_ZN5ImGui13SetCursorPosXEf(float noundef %47)
  %48 = getelementptr inbounds nuw i8, ptr %39, i64 16
  %49 = load ptr, ptr %48, align 8, !tbaa !490
  call void @_ZN5ImGui15TextUnformattedEPKcS1_(ptr noundef %49, ptr noundef null)
  %indvars.iv.next35 = add nuw nsw i64 %indvars.iv34, 1
  %exitcond37.not = icmp eq i64 %indvars.iv.next35, 5
  br i1 %exitcond37.not, label %37, label %38, !llvm.loop !491

50:                                               ; preds = %37, %32
  ret void
}